target datalayout = "e-m:e-p270:32:32-p271:32:32-p272:64:64-i64:64-i128:128-f80:128-n8:16:32:64-S128"
target triple = "x86_64-pc-linux-gnu"

%"class.absl::lts_20240116::log_internal::Voidify" = type { i8 }
%"class.absl::lts_20240116::log_internal::LogMessageFatal" = type { %"class.absl::lts_20240116::log_internal::LogMessage" }
%"class.absl::lts_20240116::log_internal::LogMessage" = type { %"class.absl::lts_20240116::base_internal::ErrnoSaver", %"class.std::unique_ptr" }
%"class.absl::lts_20240116::base_internal::ErrnoSaver" = type { i32 }
%"class.std::unique_ptr" = type { %"struct.std::__uniq_ptr_data" }
%"struct.std::__uniq_ptr_data" = type { %"class.std::__uniq_ptr_impl" }
%"class.std::__uniq_ptr_impl" = type { %"class.std::tuple" }
%"class.std::tuple" = type { %"struct.std::_Tuple_impl" }
%"struct.std::_Tuple_impl" = type { %"struct.std::_Head_base.2" }
%"struct.std::_Head_base.2" = type { ptr }
%"class.std::basic_string_view" = type { i64, ptr }
%"class.ceres::internal::Corrector" = type { double, double, double }
%"class.std::__cxx11::basic_string" = type { %"struct.std::__cxx11::basic_string<char>::_Alloc_hider", i64, %union.anon }
%"struct.std::__cxx11::basic_string<char>::_Alloc_hider" = type { ptr }
%union.anon = type { i64, [8 x i8] }

@.str = private unnamed_addr constant [15 x i8] c"sq_norm >= 0.0\00", align 1
@.str.3 = private unnamed_addr constant [124 x i8] c"generated/home/dtcxzyw/WorkSpace/Projects/compilers/llvm-opt-benchmark/bench/ceres/ceres-solver/internal/ceres/corrector.cc\00", align 1
@.str.4 = private unnamed_addr constant [13 x i8] c"rho[1] > 0.0\00", align 1

; Function Attrs: noinline noreturn nounwind uwtable
define linkonce_odr hidden void @__clang_call_terminate(ptr noundef %0) #12 comdat {
  %2 = call ptr @__cxa_begin_catch(ptr %0) #17
  call void @_ZSt9terminatev() #19
  unreachable
}

; Function Attrs: mustprogress nounwind uwtable
define available_externally noundef ptr @_ZNKSt7__cxx1112basic_stringIcSt11char_traitsIcESaIcEE7_M_dataEv(ptr noundef nonnull align 8 dereferenceable(32) %0) #1 align 2 {
  %2 = alloca ptr, align 8
  store ptr %0, ptr %2, align 8, !tbaa !20
  %3 = load ptr, ptr %2, align 8
  %4 = getelementptr inbounds nuw %"class.std::__cxx11::basic_string", ptr %3, i32 0, i32 0
  %5 = getelementptr inbounds nuw %"struct.std::__cxx11::basic_string<char>::_Alloc_hider", ptr %4, i32 0, i32 0
  %6 = load ptr, ptr %5, align 8, !tbaa !54
  ret ptr %6
}

; Function Attrs: mustprogress nounwind uwtable
define linkonce_odr hidden void @_ZNSt17basic_string_viewIcSt11char_traitsIcEEC2EPKcm(ptr noundef nonnull align 8 dereferenceable(16) %0, ptr noundef %1, i64 noundef %2) unnamed_addr #1 comdat align 2 {
  %4 = alloca ptr, align 8
  %5 = alloca ptr, align 8
  %6 = alloca i64, align 8
  store ptr %0, ptr %4, align 8, !tbaa !49
  store ptr %1, ptr %5, align 8, !tbaa !28
  store i64 %2, ptr %6, align 8, !tbaa !38
  %7 = load ptr, ptr %4, align 8
  %8 = getelementptr inbounds nuw %"class.std::basic_string_view", ptr %7, i32 0, i32 0
  %9 = load i64, ptr %6, align 8, !tbaa !38
  store i64 %9, ptr %8, align 8, !tbaa !51
  %10 = getelementptr inbounds nuw %"class.std::basic_string_view", ptr %7, i32 0, i32 1
  %11 = load ptr, ptr %5, align 8, !tbaa !28
  store ptr %11, ptr %10, align 8, !tbaa !53
  ret void
}

; Function Attrs: mustprogress nounwind uwtable
define available_externally noundef i64 @_ZNKSt7__cxx1112basic_stringIcSt11char_traitsIcESaIcEE4sizeEv(ptr noundef nonnull align 8 dereferenceable(32) %0) #1 align 2 {
  %2 = alloca ptr, align 8
  store ptr %0, ptr %2, align 8, !tbaa !20
  %3 = load ptr, ptr %2, align 8
  %4 = getelementptr inbounds nuw %"class.std::__cxx11::basic_string", ptr %3, i32 0, i32 1
  %5 = load i64, ptr %4, align 8, !tbaa !46
  ret i64 %5
}

; Function Attrs: mustprogress nounwind uwtable
define available_externally noundef ptr @_ZNKSt7__cxx1112basic_stringIcSt11char_traitsIcESaIcEE4dataEv(ptr noundef nonnull align 8 dereferenceable(32) %0) #1 align 2 personality ptr @__gxx_personality_v0 {
  %2 = alloca ptr, align 8
  store ptr %0, ptr %2, align 8, !tbaa !20
  %3 = load ptr, ptr %2, align 8
  %4 = invoke noundef ptr @_ZNKSt7__cxx1112basic_stringIcSt11char_traitsIcESaIcEE7_M_dataEv(ptr noundef nonnull align 8 dereferenceable(32) %3)
          to label %5 unwind label %6

5:                                                ; preds = %1
  ret ptr %4

6:                                                ; preds = %1
  %7 = landingpad { ptr, i32 }
          catch ptr null
  %8 = extractvalue { ptr, i32 } %7, 0
  call void @__clang_call_terminate(ptr %8) #19
  unreachable
}

; Function Attrs: inlinehint mustprogress uwtable
define linkonce_odr hidden noundef ptr @_ZN4absl12lts_2024011612log_internal12Check_GTImplIddEEPNSt7__cxx1112basic_stringIcSt11char_traitsIcESaIcEEERKT_RKT0_PKc(ptr noundef nonnull align 8 dereferenceable(8) %0, ptr noundef nonnull align 8 dereferenceable(8) %1, ptr noundef %2) #4 comdat {
  %4 = alloca ptr, align 8
  %5 = alloca ptr, align 8
  %6 = alloca ptr, align 8
  store ptr %0, ptr %4, align 8, !tbaa !18
  store ptr %1, ptr %5, align 8, !tbaa !18
  store ptr %2, ptr %6, align 8, !tbaa !28
  %7 = load ptr, ptr %4, align 8, !tbaa !18
  %8 = load double, ptr %7, align 8, !tbaa !16
  %9 = load ptr, ptr %5, align 8, !tbaa !18
  %10 = load double, ptr %9, align 8, !tbaa !16
  %11 = fcmp ogt double %8, %10
  %12 = zext i1 %11 to i64
  %13 = call i64 @llvm.expect.i64(i64 %12, i64 1)
  %14 = icmp ne i64 %13, 0
  br i1 %14, label %15, label %16

15:                                               ; preds = %3
  br label %23

16:                                               ; preds = %3
  %17 = load ptr, ptr %4, align 8, !tbaa !18
  %18 = load double, ptr %17, align 8, !tbaa !16
  %19 = load ptr, ptr %5, align 8, !tbaa !18
  %20 = load double, ptr %19, align 8, !tbaa !16
  %21 = load ptr, ptr %6, align 8, !tbaa !28
  %22 = call noundef nonnull ptr @_ZN4absl12lts_2024011612log_internal17MakeCheckOpStringIddEEPNSt7__cxx1112basic_stringIcSt11char_traitsIcESaIcEEET_T0_PKc(double noundef %18, double noundef %20, ptr noundef %21)
  br label %23

23:                                               ; preds = %16, %15
  %24 = phi ptr [ null, %15 ], [ %22, %16 ]
  ret ptr %24
}

; Function Attrs: mustprogress nounwind uwtable
define linkonce_odr hidden void @_ZNKO4absl12lts_2024011612log_internal7VoidifyaaINS1_10LogMessageEEEvRKT_(ptr noundef nonnull align 1 dereferenceable(1) %0, ptr noundef nonnull align 8 dereferenceable(16) %1) #1 comdat align 2 {
  %3 = alloca ptr, align 8
  %4 = alloca ptr, align 8
  store ptr %0, ptr %3, align 8, !tbaa !30
  store ptr %1, ptr %4, align 8, !tbaa !32
  ret void
}

; Function Attrs: mustprogress nounwind uwtable
define linkonce_odr hidden noundef nonnull align 8 dereferenceable(16) ptr @_ZN4absl12lts_2024011612log_internal10LogMessage14InternalStreamEv(ptr noundef nonnull align 8 dereferenceable(16) %0) #1 comdat align 2 {
  %2 = alloca ptr, align 8
  store ptr %0, ptr %2, align 8, !tbaa !32
  %3 = load ptr, ptr %2, align 8
  ret ptr %3
}

; Function Attrs: mustprogress nounwind uwtable
define available_externally { i64, ptr } @_ZNKSt7__cxx1112basic_stringIcSt11char_traitsIcESaIcEEcvSt17basic_string_viewIcS2_EEv(ptr noundef nonnull align 8 dereferenceable(32) %0) #1 align 2 {
  %2 = alloca %"class.std::basic_string_view", align 8
  %3 = alloca ptr, align 8
  store ptr %0, ptr %3, align 8, !tbaa !20
  %4 = load ptr, ptr %3, align 8
  %5 = call noundef ptr @_ZNKSt7__cxx1112basic_stringIcSt11char_traitsIcESaIcEE4dataEv(ptr noundef nonnull align 8 dereferenceable(32) %4) #17
  %6 = call noundef i64 @_ZNKSt7__cxx1112basic_stringIcSt11char_traitsIcESaIcEE4sizeEv(ptr noundef nonnull align 8 dereferenceable(32) %4) #17
  call void @_ZNSt17basic_string_viewIcSt11char_traitsIcEEC2EPKcm(ptr noundef nonnull align 8 dereferenceable(16) %2, ptr noundef %5, i64 noundef %6) #17
  %7 = load { i64, ptr }, ptr %2, align 8
  ret { i64, ptr } %7
}

; Function Attrs: inlinehint mustprogress uwtable
define linkonce_odr hidden noundef ptr @_ZN4absl12lts_2024011612log_internal12Check_GEImplIddEEPNSt7__cxx1112basic_stringIcSt11char_traitsIcESaIcEEERKT_RKT0_PKc(ptr noundef nonnull align 8 dereferenceable(8) %0, ptr noundef nonnull align 8 dereferenceable(8) %1, ptr noundef %2) #4 comdat {
  %4 = alloca ptr, align 8
  %5 = alloca ptr, align 8
  %6 = alloca ptr, align 8
  store ptr %0, ptr %4, align 8, !tbaa !18
  store ptr %1, ptr %5, align 8, !tbaa !18
  store ptr %2, ptr %6, align 8, !tbaa !28
  %7 = load ptr, ptr %4, align 8, !tbaa !18
  %8 = load double, ptr %7, align 8, !tbaa !16
  %9 = load ptr, ptr %5, align 8, !tbaa !18
  %10 = load double, ptr %9, align 8, !tbaa !16
  %11 = fcmp oge double %8, %10
  %12 = zext i1 %11 to i64
  %13 = call i64 @llvm.expect.i64(i64 %12, i64 1)
  %14 = icmp ne i64 %13, 0
  br i1 %14, label %15, label %16

15:                                               ; preds = %3
  br label %23

16:                                               ; preds = %3
  %17 = load ptr, ptr %4, align 8, !tbaa !18
  %18 = load double, ptr %17, align 8, !tbaa !16
  %19 = load ptr, ptr %5, align 8, !tbaa !18
  %20 = load double, ptr %19, align 8, !tbaa !16
  %21 = load ptr, ptr %6, align 8, !tbaa !28
  %22 = call noundef nonnull ptr @_ZN4absl12lts_2024011612log_internal17MakeCheckOpStringIddEEPNSt7__cxx1112basic_stringIcSt11char_traitsIcESaIcEEET_T0_PKc(double noundef %18, double noundef %20, ptr noundef %21)
  br label %23

23:                                               ; preds = %16, %15
  %24 = phi ptr [ null, %15 ], [ %22, %16 ]
  ret ptr %24
}

; Function Attrs: inlinehint mustprogress nounwind uwtable
define linkonce_odr hidden noundef nonnull align 8 dereferenceable(8) ptr @_ZN4absl12lts_2024011612log_internal21GetReferenceableValueIdEERKT_S5_(ptr noundef nonnull align 8 dereferenceable(8) %0) #5 comdat {
  %2 = alloca ptr, align 8
  store ptr %0, ptr %2, align 8, !tbaa !18
  %3 = load ptr, ptr %2, align 8, !tbaa !18
  ret ptr %3
}

; Function Attrs: mustprogress uwtable
define hidden void @_ZN5ceres8internal9CorrectorC2EdPKd(ptr noundef nonnull align 8 dereferenceable(24) %0, double noundef %1, ptr noundef %2) unnamed_addr #3 align 2 personality ptr @__gxx_personality_v0 {
  %4 = alloca ptr, align 8
  %5 = alloca double, align 8
  %6 = alloca ptr, align 8
  %7 = alloca ptr, align 8
  %8 = alloca double, align 8
  %9 = alloca %"class.absl::lts_20240116::log_internal::Voidify", align 1
  %10 = alloca %"class.absl::lts_20240116::log_internal::LogMessageFatal", align 8
  %11 = alloca %"class.std::basic_string_view", align 8
  %12 = alloca ptr, align 8
  %13 = alloca i32, align 4
  %14 = alloca ptr, align 8
  %15 = alloca double, align 8
  %16 = alloca %"class.absl::lts_20240116::log_internal::Voidify", align 1
  %17 = alloca %"class.absl::lts_20240116::log_internal::LogMessageFatal", align 8
  %18 = alloca %"class.std::basic_string_view", align 8
  %19 = alloca double, align 8
  %20 = alloca double, align 8
  store ptr %0, ptr %4, align 8, !tbaa !14
  store double %1, ptr %5, align 8, !tbaa !16
  store ptr %2, ptr %6, align 8, !tbaa !18
  %21 = load ptr, ptr %4, align 8
  br label %22

22:                                               ; preds = %3
  call void @llvm.lifetime.start.p0(i64 8, ptr %7) #17
  %23 = call noundef nonnull align 8 dereferenceable(8) ptr @_ZN4absl12lts_2024011612log_internal21GetReferenceableValueIdEERKT_S5_(ptr noundef nonnull align 8 dereferenceable(8) %5)
  call void @llvm.lifetime.start.p0(i64 8, ptr %8) #17
  store double 0.000000e+00, ptr %8, align 8, !tbaa !16
  %24 = call noundef nonnull align 8 dereferenceable(8) ptr @_ZN4absl12lts_2024011612log_internal21GetReferenceableValueIdEERKT_S5_(ptr noundef nonnull align 8 dereferenceable(8) %8)
  %25 = call noundef ptr @_ZN4absl12lts_2024011612log_internal12Check_GEImplIddEEPNSt7__cxx1112basic_stringIcSt11char_traitsIcESaIcEEERKT_RKT0_PKc(ptr noundef nonnull align 8 dereferenceable(8) %23, ptr noundef nonnull align 8 dereferenceable(8) %24, ptr noundef @.str)
  call void @llvm.lifetime.end.p0(i64 8, ptr %8) #17
  store ptr %25, ptr %7, align 8, !tbaa !20
  %26 = load ptr, ptr %7, align 8, !tbaa !20
  %27 = icmp ne ptr %26, null
  br i1 %27, label %29, label %28

28:                                               ; preds = %22
  call void @llvm.lifetime.end.p0(i64 8, ptr %7) #17
  br label %48

29:                                               ; preds = %22
  call void @llvm.lifetime.start.p0(i64 1, ptr %9) #17
  call void @llvm.lifetime.start.p0(i64 16, ptr %10) #17
  %30 = load ptr, ptr %7, align 8, !tbaa !20
  %31 = call { i64, ptr } @_ZNKSt7__cxx1112basic_stringIcSt11char_traitsIcESaIcEEcvSt17basic_string_viewIcS2_EEv(ptr noundef nonnull align 8 dereferenceable(32) %30) #17
  %32 = getelementptr inbounds nuw { i64, ptr }, ptr %11, i32 0, i32 0
  %33 = extractvalue { i64, ptr } %31, 0
  store i64 %33, ptr %32, align 8
  %34 = getelementptr inbounds nuw { i64, ptr }, ptr %11, i32 0, i32 1
  %35 = extractvalue { i64, ptr } %31, 1
  store ptr %35, ptr %34, align 8
  %36 = getelementptr inbounds nuw { i64, ptr }, ptr %11, i32 0, i32 0
  %37 = load i64, ptr %36, align 8
  %38 = getelementptr inbounds nuw { i64, ptr }, ptr %11, i32 0, i32 1
  %39 = load ptr, ptr %38, align 8
  call void @_ZN4absl12lts_2024011612log_internal15LogMessageFatalC1EPKciSt17basic_string_viewIcSt11char_traitsIcEE(ptr noundef nonnull align 8 dereferenceable(16) %10, ptr noundef @.str.3, i32 noundef 42, i64 %37, ptr %39) #18
  %40 = invoke noundef nonnull align 8 dereferenceable(16) ptr @_ZN4absl12lts_2024011612log_internal10LogMessage14InternalStreamEv(ptr noundef nonnull align 8 dereferenceable(16) %10)
          to label %41 unwind label %43

41:                                               ; preds = %29
  invoke void @_ZNKO4absl12lts_2024011612log_internal7VoidifyaaINS1_10LogMessageEEEvRKT_(ptr noundef nonnull align 1 dereferenceable(1) %9, ptr noundef nonnull align 8 dereferenceable(16) %40)
          to label %42 unwind label %43

42:                                               ; preds = %41
  call void @_ZN4absl12lts_2024011612log_internal15LogMessageFatalD1Ev(ptr noundef nonnull align 8 dereferenceable(16) %10) #19
  unreachable

43:                                               ; preds = %41, %29
  %44 = landingpad { ptr, i32 }
          cleanup
  %45 = extractvalue { ptr, i32 } %44, 0
  store ptr %45, ptr %12, align 8
  %46 = extractvalue { ptr, i32 } %44, 1
  store i32 %46, ptr %13, align 4
  call void @_ZN4absl12lts_2024011612log_internal15LogMessageFatalD1Ev(ptr noundef nonnull align 8 dereferenceable(16) %10) #19
  unreachable

47:                                               ; No predecessors!
  call void @llvm.lifetime.end.p0(i64 16, ptr %10) #17
  call void @llvm.lifetime.end.p0(i64 1, ptr %9) #17
  call void @llvm.lifetime.end.p0(i64 8, ptr %7) #17
  br label %121

48:                                               ; preds = %28
  %49 = load ptr, ptr %6, align 8, !tbaa !18
  %50 = getelementptr inbounds double, ptr %49, i64 1
  %51 = load double, ptr %50, align 8, !tbaa !16
  %52 = call double @sqrt(double noundef %51) #17, !tbaa !22
  %53 = getelementptr inbounds nuw %"class.ceres::internal::Corrector", ptr %21, i32 0, i32 0
  store double %52, ptr %53, align 8, !tbaa !24
  %54 = load double, ptr %5, align 8, !tbaa !16
  %55 = fcmp oeq double %54, 0.000000e+00
  br i1 %55, label %61, label %56

56:                                               ; preds = %48
  %57 = load ptr, ptr %6, align 8, !tbaa !18
  %58 = getelementptr inbounds double, ptr %57, i64 2
  %59 = load double, ptr %58, align 8, !tbaa !16
  %60 = fcmp ole double %59, 0.000000e+00
  br i1 %60, label %61, label %66

61:                                               ; preds = %56, %48
  %62 = getelementptr inbounds nuw %"class.ceres::internal::Corrector", ptr %21, i32 0, i32 0
  %63 = load double, ptr %62, align 8, !tbaa !24
  %64 = getelementptr inbounds nuw %"class.ceres::internal::Corrector", ptr %21, i32 0, i32 1
  store double %63, ptr %64, align 8, !tbaa !26
  %65 = getelementptr inbounds nuw %"class.ceres::internal::Corrector", ptr %21, i32 0, i32 2
  store double 0.000000e+00, ptr %65, align 8, !tbaa !27
  br label %120

66:                                               ; preds = %56
  br label %67

67:                                               ; preds = %66
  call void @llvm.lifetime.start.p0(i64 8, ptr %14) #17
  %68 = load ptr, ptr %6, align 8, !tbaa !18
  %69 = getelementptr inbounds double, ptr %68, i64 1
  %70 = call noundef nonnull align 8 dereferenceable(8) ptr @_ZN4absl12lts_2024011612log_internal21GetReferenceableValueIdEERKT_S5_(ptr noundef nonnull align 8 dereferenceable(8) %69)
  call void @llvm.lifetime.start.p0(i64 8, ptr %15) #17
  store double 0.000000e+00, ptr %15, align 8, !tbaa !16
  %71 = call noundef nonnull align 8 dereferenceable(8) ptr @_ZN4absl12lts_2024011612log_internal21GetReferenceableValueIdEERKT_S5_(ptr noundef nonnull align 8 dereferenceable(8) %15)
  %72 = call noundef ptr @_ZN4absl12lts_2024011612log_internal12Check_GTImplIddEEPNSt7__cxx1112basic_stringIcSt11char_traitsIcESaIcEEERKT_RKT0_PKc(ptr noundef nonnull align 8 dereferenceable(8) %70, ptr noundef nonnull align 8 dereferenceable(8) %71, ptr noundef @.str.4)
  call void @llvm.lifetime.end.p0(i64 8, ptr %15) #17
  store ptr %72, ptr %14, align 8, !tbaa !20
  %73 = load ptr, ptr %14, align 8, !tbaa !20
  %74 = icmp ne ptr %73, null
  br i1 %74, label %76, label %75

75:                                               ; preds = %67
  call void @llvm.lifetime.end.p0(i64 8, ptr %14) #17
  br label %95

76:                                               ; preds = %67
  call void @llvm.lifetime.start.p0(i64 1, ptr %16) #17
  call void @llvm.lifetime.start.p0(i64 16, ptr %17) #17
  %77 = load ptr, ptr %14, align 8, !tbaa !20
  %78 = call { i64, ptr } @_ZNKSt7__cxx1112basic_stringIcSt11char_traitsIcESaIcEEcvSt17basic_string_viewIcS2_EEv(ptr noundef nonnull align 8 dereferenceable(32) %77) #17
  %79 = getelementptr inbounds nuw { i64, ptr }, ptr %18, i32 0, i32 0
  %80 = extractvalue { i64, ptr } %78, 0
  store i64 %80, ptr %79, align 8
  %81 = getelementptr inbounds nuw { i64, ptr }, ptr %18, i32 0, i32 1
  %82 = extractvalue { i64, ptr } %78, 1
  store ptr %82, ptr %81, align 8
  %83 = getelementptr inbounds nuw { i64, ptr }, ptr %18, i32 0, i32 0
  %84 = load i64, ptr %83, align 8
  %85 = getelementptr inbounds nuw { i64, ptr }, ptr %18, i32 0, i32 1
  %86 = load ptr, ptr %85, align 8
  call void @_ZN4absl12lts_2024011612log_internal15LogMessageFatalC1EPKciSt17basic_string_viewIcSt11char_traitsIcEE(ptr noundef nonnull align 8 dereferenceable(16) %17, ptr noundef @.str.3, i32 noundef 93, i64 %84, ptr %86) #18
  %87 = invoke noundef nonnull align 8 dereferenceable(16) ptr @_ZN4absl12lts_2024011612log_internal10LogMessage14InternalStreamEv(ptr noundef nonnull align 8 dereferenceable(16) %17)
          to label %88 unwind label %90

88:                                               ; preds = %76
  invoke void @_ZNKO4absl12lts_2024011612log_internal7VoidifyaaINS1_10LogMessageEEEvRKT_(ptr noundef nonnull align 1 dereferenceable(1) %16, ptr noundef nonnull align 8 dereferenceable(16) %87)
          to label %89 unwind label %90

89:                                               ; preds = %88
  call void @_ZN4absl12lts_2024011612log_internal15LogMessageFatalD1Ev(ptr noundef nonnull align 8 dereferenceable(16) %17) #19
  unreachable

90:                                               ; preds = %88, %76
  %91 = landingpad { ptr, i32 }
          cleanup
  %92 = extractvalue { ptr, i32 } %91, 0
  store ptr %92, ptr %12, align 8
  %93 = extractvalue { ptr, i32 } %91, 1
  store i32 %93, ptr %13, align 4
  call void @_ZN4absl12lts_2024011612log_internal15LogMessageFatalD1Ev(ptr noundef nonnull align 8 dereferenceable(16) %17) #19
  unreachable

94:                                               ; No predecessors!
  call void @llvm.lifetime.end.p0(i64 16, ptr %17) #17
  call void @llvm.lifetime.end.p0(i64 1, ptr %16) #17
  call void @llvm.lifetime.end.p0(i64 8, ptr %14) #17
  br label %121

95:                                               ; preds = %75
  call void @llvm.lifetime.start.p0(i64 8, ptr %19) #17
  %96 = load double, ptr %5, align 8, !tbaa !16
  %97 = fmul double 2.000000e+00, %96
  %98 = load ptr, ptr %6, align 8, !tbaa !18
  %99 = getelementptr inbounds double, ptr %98, i64 2
  %100 = load double, ptr %99, align 8, !tbaa !16
  %101 = fmul double %97, %100
  %102 = load ptr, ptr %6, align 8, !tbaa !18
  %103 = getelementptr inbounds double, ptr %102, i64 1
  %104 = load double, ptr %103, align 8, !tbaa !16
  %105 = fdiv double %101, %104
  %106 = fadd double 1.000000e+00, %105
  store double %106, ptr %19, align 8, !tbaa !16
  call void @llvm.lifetime.start.p0(i64 8, ptr %20) #17
  %107 = load double, ptr %19, align 8, !tbaa !16
  %108 = call double @sqrt(double noundef %107) #17, !tbaa !22
  %109 = fsub double 1.000000e+00, %108
  store double %109, ptr %20, align 8, !tbaa !16
  %110 = getelementptr inbounds nuw %"class.ceres::internal::Corrector", ptr %21, i32 0, i32 0
  %111 = load double, ptr %110, align 8, !tbaa !24
  %112 = load double, ptr %20, align 8, !tbaa !16
  %113 = fsub double 1.000000e+00, %112
  %114 = fdiv double %111, %113
  %115 = getelementptr inbounds nuw %"class.ceres::internal::Corrector", ptr %21, i32 0, i32 1
  store double %114, ptr %115, align 8, !tbaa !26
  %116 = load double, ptr %20, align 8, !tbaa !16
  %117 = load double, ptr %5, align 8, !tbaa !16
  %118 = fdiv double %116, %117
  %119 = getelementptr inbounds nuw %"class.ceres::internal::Corrector", ptr %21, i32 0, i32 2
  store double %118, ptr %119, align 8, !tbaa !27
  call void @llvm.lifetime.end.p0(i64 8, ptr %20) #17
  call void @llvm.lifetime.end.p0(i64 8, ptr %19) #17
  br label %120

120:                                              ; preds = %95, %61
  ret void

121:                                              ; preds = %94, %47
  %122 = load ptr, ptr %12, align 8
  %123 = load i32, ptr %13, align 4
  %124 = insertvalue { ptr, i32 } poison, ptr %122, 0
  %125 = insertvalue { ptr, i32 } %124, i32 %123, 1
  resume { ptr, i32 } %125
}