; Function Attrs: mustprogress uwtable
define hidden void @_ZN5ceres8internal9CorrectorC2EdPKd(ptr noundef nonnull writeonly align 8 captures(none) dereferenceable(24) %0, double noundef %1, ptr noundef readonly captures(none) %2) unnamed_addr #0 align 2 personality ptr @__gxx_personality_v0 {
  %4 = alloca %"class.absl::lts_20240116::log_internal::LogMessageFatal", align 8
  %5 = alloca %"class.absl::lts_20240116::log_internal::LogMessageFatal", align 8
  %6 = fcmp ult double %1, 0.000000e+00
  br i1 %6, label %12, label %7, !prof !3

7:                                                ; preds = %3
  %8 = getelementptr inbounds nuw i8, ptr %2, i64 8
  %9 = load double, ptr %8, align 8, !tbaa !4
  %10 = tail call double @sqrt(double noundef %9) #9, !tbaa !8
  store double %10, ptr %0, align 8, !tbaa !10
  %11 = fcmp oeq double %1, 0.000000e+00
  br i1 %11, label %21, label %17

12:                                               ; preds = %3
  %13 = tail call noundef nonnull ptr @_ZN4absl12lts_2024011612log_internal17MakeCheckOpStringIddEEPNSt7__cxx1112basic_stringIcSt11char_traitsIcESaIcEEET_T0_PKc(double noundef %1, double noundef 0.000000e+00, ptr noundef nonnull @.str)
  call void @llvm.lifetime.start.p0(i64 16, ptr nonnull %4) #9
  %14 = load ptr, ptr %13, align 8, !tbaa !12
  %15 = getelementptr inbounds nuw i8, ptr %13, i64 8
  %16 = load i64, ptr %15, align 8, !tbaa !18
  call void @_ZN4absl12lts_2024011612log_internal15LogMessageFatalC1EPKciSt17basic_string_viewIcSt11char_traitsIcEE(ptr noundef nonnull align 8 dereferenceable(16) %4, ptr noundef nonnull @.str.3, i32 noundef 42, i64 %16, ptr %14) #10
  call void @_ZN4absl12lts_2024011612log_internal15LogMessageFatalD1Ev(ptr noundef nonnull align 8 dereferenceable(16) %4) #11
  unreachable

17:                                               ; preds = %7
  %18 = getelementptr inbounds nuw i8, ptr %2, i64 16
  %19 = load double, ptr %18, align 8, !tbaa !4
  %20 = fcmp ugt double %19, 0.000000e+00
  br i1 %20, label %23, label %21

21:                                               ; preds = %17, %7
  %22 = getelementptr inbounds nuw i8, ptr %0, i64 8
  store double %10, ptr %22, align 8, !tbaa !19
  br label %42

23:                                               ; preds = %17
  %24 = load double, ptr %8, align 8, !tbaa !4
  %25 = fcmp ogt double %24, 0.000000e+00
  br i1 %25, label %26, label %37, !prof !20

26:                                               ; preds = %23
  %27 = fmul double %1, 2.000000e+00
  %28 = fmul double %27, %19
  %29 = fdiv double %28, %24
  %30 = fadd double %29, 1.000000e+00
  %31 = tail call double @sqrt(double noundef %30) #9, !tbaa !8
  %32 = fsub double 1.000000e+00, %31
  %33 = fsub double 1.000000e+00, %32
  %34 = fdiv double %10, %33
  %35 = getelementptr inbounds nuw i8, ptr %0, i64 8
  store double %34, ptr %35, align 8, !tbaa !19
  %36 = fdiv double %32, %1
  br label %42

37:                                               ; preds = %23
  %38 = tail call noundef nonnull ptr @_ZN4absl12lts_2024011612log_internal17MakeCheckOpStringIddEEPNSt7__cxx1112basic_stringIcSt11char_traitsIcESaIcEEET_T0_PKc(double noundef %24, double noundef 0.000000e+00, ptr noundef nonnull @.str.4)
  call void @llvm.lifetime.start.p0(i64 16, ptr nonnull %5) #9
  %39 = load ptr, ptr %38, align 8, !tbaa !12
  %40 = getelementptr inbounds nuw i8, ptr %38, i64 8
  %41 = load i64, ptr %40, align 8, !tbaa !18
  call void @_ZN4absl12lts_2024011612log_internal15LogMessageFatalC1EPKciSt17basic_string_viewIcSt11char_traitsIcEE(ptr noundef nonnull align 8 dereferenceable(16) %5, ptr noundef nonnull @.str.3, i32 noundef 93, i64 %41, ptr %39) #10
  call void @_ZN4absl12lts_2024011612log_internal15LogMessageFatalD1Ev(ptr noundef nonnull align 8 dereferenceable(16) %5) #11
  unreachable

42:                                               ; preds = %26, %21
  %.sink = phi double [ %36, %26 ], [ 0.000000e+00, %21 ]
  %43 = getelementptr inbounds nuw i8, ptr %0, i64 16
  store double %.sink, ptr %43, align 8, !tbaa !21
  ret void
}